; Function Attrs: nounwind uwtable
define internal noundef ptr @test_refcount_funcs(ptr readnone captures(none) %0, ptr readnone captures(none) %1) #0 {
  %3 = tail call ptr @PyList_New(i64 noundef 0) #5
  %4 = icmp eq ptr %3, null
  br i1 %4, label %Py_DECREF.exit20, label %5

5:                                                ; preds = %2
  %.val = load i32, ptr %3, align 8, !tbaa !8
  %6 = icmp eq i32 %.val, 1
  br i1 %6, label %8, label %7

7:                                                ; preds = %5
  tail call void @__assert_fail(ptr noundef nonnull @.str.39, ptr noundef nonnull @.str.28, i32 noundef 412, ptr noundef nonnull @__PRETTY_FUNCTION__.test_refcount_funcs) #6
  unreachable

8:                                                ; preds = %5
  %9 = tail call ptr @Py_NewRef(ptr noundef nonnull %3) #5
  %10 = icmp eq ptr %9, %3
  br i1 %10, label %12, label %11

11:                                               ; preds = %8
  tail call void @__assert_fail(ptr noundef nonnull @.str.40, ptr noundef nonnull @.str.28, i32 noundef 412, ptr noundef nonnull @__PRETTY_FUNCTION__.test_refcount_funcs) #6
  unreachable

12:                                               ; preds = %8
  %.val23 = load i32, ptr %3, align 8, !tbaa !8
  %13 = icmp eq i32 %.val23, 2
  br i1 %13, label %15, label %14

14:                                               ; preds = %12
  tail call void @__assert_fail(ptr noundef nonnull @.str.41, ptr noundef nonnull @.str.28, i32 noundef 412, ptr noundef nonnull @__PRETTY_FUNCTION__.test_refcount_funcs) #6
  unreachable

15:                                               ; preds = %12
  %16 = load i32, ptr %9, align 8, !tbaa !8
  %.not.i = icmp sgt i32 %16, -1
  br i1 %.not.i, label %17, label %Py_DECREF.exit

17:                                               ; preds = %15
  %18 = add nsw i32 %16, -1
  store i32 %18, ptr %9, align 8, !tbaa !8
  %19 = icmp eq i32 %18, 0
  br i1 %19, label %20, label %Py_DECREF.exit

20:                                               ; preds = %17
  tail call void @_Py_Dealloc(ptr noundef nonnull %9) #5
  br label %Py_DECREF.exit

Py_DECREF.exit:                                   ; preds = %15, %17, %20
  %21 = tail call ptr @Py_XNewRef(ptr noundef nonnull %3) #5
  %22 = icmp eq ptr %21, %3
  br i1 %22, label %24, label %23

23:                                               ; preds = %Py_DECREF.exit
  tail call void @__assert_fail(ptr noundef nonnull @.str.42, ptr noundef nonnull @.str.28, i32 noundef 412, ptr noundef nonnull @__PRETTY_FUNCTION__.test_refcount_funcs) #6
  unreachable

24:                                               ; preds = %Py_DECREF.exit
  %.val24 = load i32, ptr %3, align 8, !tbaa !8
  %25 = icmp eq i32 %.val24, 2
  br i1 %25, label %27, label %26

26:                                               ; preds = %24
  tail call void @__assert_fail(ptr noundef nonnull @.str.41, ptr noundef nonnull @.str.28, i32 noundef 412, ptr noundef nonnull @__PRETTY_FUNCTION__.test_refcount_funcs) #6
  unreachable

27:                                               ; preds = %24
  %28 = load i32, ptr %21, align 8, !tbaa !8
  %.not.i17 = icmp sgt i32 %28, -1
  br i1 %.not.i17, label %29, label %Py_DECREF.exit18

29:                                               ; preds = %27
  %30 = add nsw i32 %28, -1
  store i32 %30, ptr %21, align 8, !tbaa !8
  %31 = icmp eq i32 %30, 0
  br i1 %31, label %32, label %Py_DECREF.exit18

32:                                               ; preds = %29
  tail call void @_Py_Dealloc(ptr noundef nonnull %21) #5
  br label %Py_DECREF.exit18

Py_DECREF.exit18:                                 ; preds = %27, %29, %32
  %33 = tail call ptr @Py_XNewRef(ptr noundef null) #5
  %34 = icmp eq ptr %33, null
  br i1 %34, label %36, label %35

35:                                               ; preds = %Py_DECREF.exit18
  tail call void @__assert_fail(ptr noundef nonnull @.str.43, ptr noundef nonnull @.str.28, i32 noundef 412, ptr noundef nonnull @__PRETTY_FUNCTION__.test_refcount_funcs) #6
  unreachable

36:                                               ; preds = %Py_DECREF.exit18
  %37 = load i32, ptr %3, align 8, !tbaa !8
  %.not.i19 = icmp sgt i32 %37, -1
  br i1 %.not.i19, label %38, label %Py_DECREF.exit20

38:                                               ; preds = %36
  %39 = add nsw i32 %37, -1
  store i32 %39, ptr %3, align 8, !tbaa !8
  %40 = icmp eq i32 %39, 0
  br i1 %40, label %41, label %Py_DECREF.exit20

41:                                               ; preds = %38
  tail call void @_Py_Dealloc(ptr noundef nonnull %3) #5
  br label %Py_DECREF.exit20

Py_DECREF.exit20:                                 ; preds = %41, %38, %36, %2
  %.0 = phi ptr [ null, %2 ], [ @_Py_NoneStruct, %36 ], [ @_Py_NoneStruct, %38 ], [ @_Py_NoneStruct, %41 ]
  ret ptr %.0
}